; Function Attrs: mustprogress nounwind uwtable
define hidden void @_ZN9ZDirector14evaluate_rulesEv() local_unnamed_addr #0 align 2 {
_ZN7ZLockerI14ZConditionLockED2Ev.exit:
  %0 = load ptr, ptr @_ZN9ZDirector9_directorE, align 8
  %1 = getelementptr inbounds i8, ptr %0, i64 920
  %2 = tail call i32 @pthread_mutex_lock(ptr noundef nonnull %1) #11
  %3 = load ptr, ptr @_ZN9ZDirector9_directorE, align 8
  %4 = getelementptr inbounds i8, ptr %3, i64 960
  %5 = tail call i32 @pthread_cond_signal(ptr noundef nonnull %4) #11
  %6 = tail call i32 @pthread_mutex_unlock(ptr noundef nonnull %1) #11
  ret void
}